target datalayout = "e-m:e-p270:32:32-p271:32:32-p272:64:64-i64:64-i128:128-f80:128-n8:16:32:64-S128"
target triple = "x86_64-pc-linux-gnu"

%struct.nstime_t = type { i64, i32 }
%struct._packet_info = type { ptr, ptr, i32, i32, %struct.nstime_t, %struct.nstime_t, %struct.nstime_t, i8, ptr, ptr, ptr, ptr, %struct._address, %struct._address, %struct._address, %struct._address, %struct._address, %struct._address, i32, ptr, i8, [3 x i8], %struct.anon, i32, i32, i32, i32, ptr, i8, ptr, ptr, i16, i16, i32, i32, i16, i32, i32, ptr, ptr, ptr, i8, i8, i16, i16, i16, i32, i16, i16, ptr, ptr, ptr, ptr, ptr, i32, i32 }
%struct._address = type { i32, i32, ptr, ptr }
%struct.anon = type { i8, [3 x i8] }

@hf_pfcp_bbf_ipv4_prefix = internal global i32 -1, align 4
@hf_pfcp_bbf_ipv4_prefix_length = internal global i32 -1, align 4
@.str.2721 = private unnamed_addr constant [9 x i8] c" : %s/%d\00", align 1

; Function Attrs: null_pointer_is_valid sspstrong uwtable
define internal i32 @dissect_pfcp_enterprise_bbf_ipv4_prefix(ptr noundef %0, ptr noundef %1, ptr noundef %2, ptr noundef %3) #0 {
  %5 = alloca ptr, align 8
  %6 = alloca ptr, align 8
  %7 = alloca ptr, align 8
  %8 = alloca ptr, align 8
  %9 = alloca i32, align 4
  store ptr %0, ptr %5, align 8
  store ptr %1, ptr %6, align 8
  store ptr %2, ptr %7, align 8
  store ptr %3, ptr %8, align 8
  call void @llvm.lifetime.start.p0(i64 4, ptr %9) #13
  %10 = load ptr, ptr %7, align 8
  %11 = load i32, ptr @hf_pfcp_bbf_ipv4_prefix, align 4
  %12 = load ptr, ptr %5, align 8
  %13 = call ptr @proto_tree_add_item(ptr noundef %10, i32 noundef %11, ptr noundef %12, i32 noundef 0, i32 noundef 4, i32 noundef 0)
  %14 = load ptr, ptr %7, align 8
  %15 = load i32, ptr @hf_pfcp_bbf_ipv4_prefix_length, align 4
  %16 = load ptr, ptr %5, align 8
  %17 = call ptr @proto_tree_add_item_ret_uint(ptr noundef %14, i32 noundef %15, ptr noundef %16, i32 noundef 4, i32 noundef 1, i32 noundef 0, ptr noundef %9)
  %18 = load ptr, ptr %7, align 8
  %19 = call ptr @proto_tree_get_parent(ptr noundef %18)
  %20 = load ptr, ptr %6, align 8
  %21 = getelementptr inbounds nuw %struct._packet_info, ptr %20, i32 0, i32 51
  %22 = load ptr, ptr %21, align 8
  %23 = load ptr, ptr %5, align 8
  %24 = call ptr @tvb_address_to_str(ptr noundef %22, ptr noundef %23, i32 noundef 2, i32 noundef 0)
  %25 = load i32, ptr %9, align 4
  call void (ptr, ptr, ...) @proto_item_append_text(ptr noundef %19, ptr noundef @.str.2721, ptr noundef %24, i32 noundef %25)
  call void @llvm.lifetime.end.p0(i64 4, ptr %9) #13
  ret i32 5
}