; Function Attrs: null_pointer_is_valid sspstrong uwtable
define internal noundef i32 @dissect_pfcp_enterprise_bbf_ipv4_prefix(ptr noundef %0, ptr noundef readonly captures(none) %1, ptr noundef %2, ptr readnone captures(none) %3) #0 {
  %5 = alloca i32, align 4
  call void @llvm.lifetime.start.p0(i64 4, ptr nonnull %5) #15
  %6 = load i32, ptr @hf_pfcp_bbf_ipv4_prefix, align 4
  %7 = tail call ptr @proto_tree_add_item(ptr noundef %2, i32 noundef %6, ptr noundef %0, i32 noundef 0, i32 noundef 4, i32 noundef 0)
  %8 = load i32, ptr @hf_pfcp_bbf_ipv4_prefix_length, align 4
  %9 = call ptr @proto_tree_add_item_ret_uint(ptr noundef %2, i32 noundef %8, ptr noundef %0, i32 noundef 4, i32 noundef 1, i32 noundef 0, ptr noundef nonnull %5)
  %10 = call ptr @proto_tree_get_parent(ptr noundef %2)
  %11 = getelementptr inbounds nuw i8, ptr %1, i64 408
  %12 = load ptr, ptr %11, align 8
  %13 = call ptr @tvb_address_to_str(ptr noundef %12, ptr noundef %0, i32 noundef 2, i32 noundef 0)
  %14 = load i32, ptr %5, align 4
  call void (ptr, ptr, ...) @proto_item_append_text(ptr noundef %10, ptr noundef nonnull @.str.2721, ptr noundef %13, i32 noundef %14)
  call void @llvm.lifetime.end.p0(i64 4, ptr nonnull %5) #15
  ret i32 5
}